target datalayout = "e-m:e-p270:32:32-p271:32:32-p272:64:64-i64:64-i128:128-f80:128-n8:16:32:64-S128"
target triple = "x86_64-pc-linux-gnu"

%union.git_hash_ctx = type { %struct.SHA1_CTX }
%struct.SHA1_CTX = type { i64, [5 x i32], [64 x i8], i32, i32, i32, i32, i32, ptr, [5 x i32], [5 x i32], [80 x i32], [80 x i32], [80 x [5 x i32]] }
%struct.git_hash_algo = type { ptr, i32, i64, i64, i64, ptr, ptr, ptr, ptr, ptr, ptr, ptr, ptr, ptr }
%struct.repository = type { ptr, ptr, ptr, ptr, ptr, %struct.strmap, %struct.strmap, %struct.repo_path_cache, ptr, ptr, ptr, ptr, %struct.repo_settings, ptr, ptr, ptr, ptr, ptr, ptr, i32, i32, i32, ptr, ptr, i32, i32, i8 }
%struct.strmap = type { %struct.hashmap, ptr, i8 }
%struct.hashmap = type { ptr, ptr, ptr, i32, i32, i32, i32, i8 }
%struct.repo_path_cache = type { ptr, ptr, ptr, ptr, ptr, ptr, ptr }
%struct.repo_settings = type { i32, i32, i32, i32, i32, i32, i32, i32, i32, i32, i32, i32, ptr, i32, i32, i32, i32, i32, i32, i32, i64, i64, i64 }

@buffer = internal global [4096 x i8] zeroinitializer, align 16
@len = internal global i32 0, align 4
@the_repository = external global ptr, align 8
@ctx = internal global %union.git_hash_ctx zeroinitializer, align 8
@offset = internal global i32 0, align 4
@.str.36 = private unnamed_addr constant [21 x i8] c"cannot fill %d bytes\00", align 1
@.str.37 = private unnamed_addr constant [10 x i8] c"early EOF\00", align 1
@.str.38 = private unnamed_addr constant [20 x i8] c"read error on input\00", align 1

; Function Attrs: nounwind uwtable
define internal ptr @fill(i32 noundef %0) #0 {
  %2 = alloca ptr, align 8
  %3 = alloca i32, align 4
  %4 = alloca i64, align 8
  store i32 %0, ptr %3, align 4, !tbaa !4
  %5 = load i32, ptr %3, align 4, !tbaa !4
  %6 = load i32, ptr @len, align 4, !tbaa !4
  %7 = icmp ule i32 %5, %6
  br i1 %7, label %8, label %12

8:                                                ; preds = %1
  %9 = load i32, ptr @offset, align 4, !tbaa !4
  %10 = zext i32 %9 to i64
  %11 = getelementptr inbounds nuw i8, ptr @buffer, i64 %10
  store ptr %11, ptr %2, align 8
  br label %61

12:                                               ; preds = %1
  %13 = load i32, ptr %3, align 4, !tbaa !4
  %14 = sext i32 %13 to i64
  %15 = icmp ugt i64 %14, 4096
  br i1 %15, label %16, label %18

16:                                               ; preds = %12
  %17 = load i32, ptr %3, align 4, !tbaa !4
  call void (ptr, ...) @die(ptr noundef @.str.36, i32 noundef %17) #12
  unreachable

18:                                               ; preds = %12
  %19 = load i32, ptr @offset, align 4, !tbaa !4
  %20 = icmp ne i32 %19, 0
  br i1 %20, label %21, label %34

21:                                               ; preds = %18
  %22 = load ptr, ptr @the_repository, align 8, !tbaa !13
  %23 = getelementptr inbounds nuw %struct.repository, ptr %22, i32 0, i32 17
  %24 = load ptr, ptr %23, align 8, !tbaa !20
  %25 = getelementptr inbounds nuw %struct.git_hash_algo, ptr %24, i32 0, i32 7
  %26 = load ptr, ptr %25, align 8, !tbaa !41
  %27 = load i32, ptr @offset, align 4, !tbaa !4
  %28 = zext i32 %27 to i64
  call void %26(ptr noundef @ctx, ptr noundef @buffer, i64 noundef %28)
  %29 = load i32, ptr @offset, align 4, !tbaa !4
  %30 = zext i32 %29 to i64
  %31 = getelementptr inbounds nuw i8, ptr @buffer, i64 %30
  %32 = load i32, ptr @len, align 4, !tbaa !4
  %33 = zext i32 %32 to i64
  call void @llvm.memmove.p0.p0.i64(ptr align 16 @buffer, ptr align 1 %31, i64 %33, i1 false)
  store i32 0, ptr @offset, align 4, !tbaa !4
  br label %34

34:                                               ; preds = %21, %18
  br label %35

35:                                               ; preds = %56, %34
  call void @llvm.lifetime.start.p0(i64 8, ptr %4) #10
  %36 = load i32, ptr @len, align 4, !tbaa !4
  %37 = zext i32 %36 to i64
  %38 = getelementptr inbounds nuw i8, ptr @buffer, i64 %37
  %39 = load i32, ptr @len, align 4, !tbaa !4
  %40 = zext i32 %39 to i64
  %41 = sub i64 4096, %40
  %42 = call i64 @xread(i32 noundef 0, ptr noundef %38, i64 noundef %41)
  store i64 %42, ptr %4, align 8, !tbaa !16
  %43 = load i64, ptr %4, align 8, !tbaa !16
  %44 = icmp sle i64 %43, 0
  br i1 %44, label %45, label %50

45:                                               ; preds = %35
  %46 = load i64, ptr %4, align 8, !tbaa !16
  %47 = icmp ne i64 %46, 0
  br i1 %47, label %49, label %48

48:                                               ; preds = %45
  call void (ptr, ...) @die(ptr noundef @.str.37) #12
  unreachable

49:                                               ; preds = %45
  call void (ptr, ...) @die_errno(ptr noundef @.str.38) #12
  unreachable

50:                                               ; preds = %35
  %51 = load i64, ptr %4, align 8, !tbaa !16
  %52 = load i32, ptr @len, align 4, !tbaa !4
  %53 = zext i32 %52 to i64
  %54 = add nsw i64 %53, %51
  %55 = trunc i64 %54 to i32
  store i32 %55, ptr @len, align 4, !tbaa !4
  call void @llvm.lifetime.end.p0(i64 8, ptr %4) #10
  br label %56

56:                                               ; preds = %50
  %57 = load i32, ptr @len, align 4, !tbaa !4
  %58 = load i32, ptr %3, align 4, !tbaa !4
  %59 = icmp ult i32 %57, %58
  br i1 %59, label %35, label %60, !llvm.loop !60

60:                                               ; preds = %56
  store ptr @buffer, ptr %2, align 8
  br label %61

61:                                               ; preds = %60, %8
  %62 = load ptr, ptr %2, align 8
  ret ptr %62
}