; Function Attrs: nounwind uwtable
define internal fastcc ptr @fill(i32 noundef %0) unnamed_addr #0 {
  %2 = load i32, ptr @len, align 4, !tbaa !9
  %.not = icmp ugt i32 %0, %2
  br i1 %.not, label %7, label %3

3:                                                ; preds = %1
  %4 = load i32, ptr @offset, align 4, !tbaa !9
  %5 = zext i32 %4 to i64
  %6 = getelementptr inbounds nuw i8, ptr @buffer, i64 %5
  br label %.loopexit

7:                                                ; preds = %1
  %8 = icmp ugt i32 %0, 4096
  br i1 %8, label %9, label %10

9:                                                ; preds = %7
  tail call void (ptr, ...) @die(ptr noundef nonnull @.str.36, i32 noundef %0) #16
  unreachable

10:                                               ; preds = %7
  %11 = load i32, ptr @offset, align 4, !tbaa !9
  %.not10 = icmp eq i32 %11, 0
  br i1 %.not10, label %.preheader, label %12

12:                                               ; preds = %10
  %13 = load ptr, ptr @the_repository, align 8, !tbaa !4
  %14 = getelementptr inbounds nuw i8, ptr %13, i64 400
  %15 = load ptr, ptr %14, align 8, !tbaa !19
  %16 = getelementptr inbounds nuw i8, ptr %15, i64 56
  %17 = load ptr, ptr %16, align 8, !tbaa !40
  %18 = zext i32 %11 to i64
  tail call void %17(ptr noundef nonnull @ctx, ptr noundef nonnull @buffer, i64 noundef %18) #14
  %19 = load i32, ptr @offset, align 4, !tbaa !9
  %20 = zext i32 %19 to i64
  %21 = getelementptr inbounds nuw i8, ptr @buffer, i64 %20
  %22 = load i32, ptr @len, align 4, !tbaa !9
  %23 = zext i32 %22 to i64
  tail call void @llvm.memmove.p0.p0.i64(ptr nonnull align 16 @buffer, ptr nonnull align 1 %21, i64 %23, i1 false)
  store i32 0, ptr @offset, align 4, !tbaa !9
  br label %.preheader

.preheader:                                       ; preds = %12, %10
  %.ph = phi i32 [ %2, %10 ], [ %22, %12 ]
  br label %24

24:                                               ; preds = %.preheader, %34
  %25 = phi i32 [ %37, %34 ], [ %.ph, %.preheader ]
  %26 = zext i32 %25 to i64
  %27 = getelementptr inbounds nuw i8, ptr @buffer, i64 %26
  %28 = sub nsw i64 4096, %26
  %29 = tail call i64 @xread(i32 noundef 0, ptr noundef nonnull %27, i64 noundef %28) #14
  %30 = icmp slt i64 %29, 1
  br i1 %30, label %31, label %34

31:                                               ; preds = %24
  %.not11 = icmp eq i64 %29, 0
  br i1 %.not11, label %32, label %33

32:                                               ; preds = %31
  tail call void (ptr, ...) @die(ptr noundef nonnull @.str.37) #16
  unreachable

33:                                               ; preds = %31
  tail call void (ptr, ...) @die_errno(ptr noundef nonnull @.str.38) #16
  unreachable

34:                                               ; preds = %24
  %35 = load i32, ptr @len, align 4, !tbaa !9
  %36 = trunc i64 %29 to i32
  %37 = add i32 %35, %36
  store i32 %37, ptr @len, align 4, !tbaa !9
  %38 = icmp ult i32 %37, %0
  br i1 %38, label %24, label %.loopexit, !llvm.loop !41

.loopexit:                                        ; preds = %34, %3
  %.0 = phi ptr [ %6, %3 ], [ @buffer, %34 ]
  ret ptr %.0
}